target datalayout = "e-m:e-p270:32:32-p271:32:32-p272:64:64-i64:64-i128:128-f80:128-n8:16:32:64-S128"
target triple = "x86_64-pc-linux-gnu"

%struct.exr_attr_opaquedata_t = type { i32, i32, i32, [4 x i8], ptr, ptr, ptr, ptr, ptr }
%struct._priv_exr_context_t = type { i8, i8, i8, i8, i8, i8, i8, i8, %struct.exr_attr_string_t, %struct.exr_attr_string_t, ptr, ptr, ptr, ptr, ptr, ptr, ptr, ptr, i32, i32, i32, i32, i32, float, ptr, ptr, ptr, i64, ptr, ptr, i64, i32, i32, i32, i32, %struct._priv_exr_part_t, ptr, ptr, %struct.exr_attribute_list, %union.pthread_mutex_t, i8, i8, [2 x i8], i32 }
%struct.exr_attr_string_t = type { i32, i32, ptr }
%struct._priv_exr_part_t = type { i32, i32, %struct.exr_attribute_list, ptr, ptr, ptr, ptr, ptr, ptr, ptr, ptr, ptr, ptr, ptr, ptr, ptr, ptr, %struct.exr_attr_box2i_t, %struct.exr_attr_box2i_t, i32, i32, i32, float, i32, i32, ptr, ptr, ptr, ptr, i64, i16, i16, i32, i64, i64 }
%struct.exr_attr_box2i_t = type { %struct.exr_attr_v2i_t, %struct.exr_attr_v2i_t }
%struct.exr_attr_v2i_t = type { i32, i32 }
%struct.exr_attribute_list = type { i32, i32, ptr, ptr }
%union.pthread_mutex_t = type { %struct.__pthread_mutex_s }
%struct.__pthread_mutex_s = type { i32, i32, i32, i32, i32, i16, i16, %struct.__pthread_internal_list }
%struct.__pthread_internal_list = type { ptr, ptr }

@.str = private unnamed_addr constant [54 x i8] c"Invalid reference to opaque data object to initialize\00", align 1
@.str.2 = private unnamed_addr constant [45 x i8] c"No unpack provider specified for opaque data\00", align 1

; Function Attrs: nounwind uwtable
define hidden i32 @exr_attr_opaquedata_unpack(ptr noundef %0, ptr noundef %1, ptr noundef %2, ptr noundef %3) #0 {
  %5 = alloca i32, align 4
  %6 = alloca ptr, align 8
  %7 = alloca ptr, align 8
  %8 = alloca ptr, align 8
  %9 = alloca ptr, align 8
  %10 = alloca i32, align 4
  %11 = alloca i32, align 4
  %12 = alloca ptr, align 8
  %13 = alloca i32, align 4
  store ptr %0, ptr %6, align 8, !tbaa !3
  store ptr %1, ptr %7, align 8, !tbaa !8
  store ptr %2, ptr %8, align 8, !tbaa !40
  store ptr %3, ptr %9, align 8, !tbaa !41
  call void @llvm.lifetime.start.p0(i64 4, ptr %10) #4
  call void @llvm.lifetime.start.p0(i64 4, ptr %11) #4
  call void @llvm.lifetime.start.p0(i64 8, ptr %12) #4
  %14 = load ptr, ptr %6, align 8, !tbaa !3
  %15 = icmp ne ptr %14, null
  br i1 %15, label %17, label %16

16:                                               ; preds = %4
  store i32 2, ptr %5, align 4
  store i32 1, ptr %13, align 4
  br label %104

17:                                               ; preds = %4
  %18 = load ptr, ptr %8, align 8, !tbaa !40
  %19 = icmp ne ptr %18, null
  br i1 %19, label %20, label %22

20:                                               ; preds = %17
  %21 = load ptr, ptr %8, align 8, !tbaa !40
  store i32 0, ptr %21, align 4, !tbaa !28
  br label %22

22:                                               ; preds = %20, %17
  %23 = load ptr, ptr %9, align 8, !tbaa !41
  %24 = icmp ne ptr %23, null
  br i1 %24, label %25, label %27

25:                                               ; preds = %22
  %26 = load ptr, ptr %9, align 8, !tbaa !41
  store ptr null, ptr %26, align 8, !tbaa !8
  br label %27

27:                                               ; preds = %25, %22
  %28 = load ptr, ptr %7, align 8, !tbaa !8
  %29 = icmp ne ptr %28, null
  br i1 %29, label %36, label %30

30:                                               ; preds = %27
  %31 = load ptr, ptr %6, align 8, !tbaa !3
  %32 = getelementptr inbounds nuw %struct._priv_exr_context_t, ptr %31, i32 0, i32 13
  %33 = load ptr, ptr %32, align 8, !tbaa !11
  %34 = load ptr, ptr %6, align 8, !tbaa !3
  %35 = call i32 %33(ptr noundef %34, i32 noundef 3, ptr noundef @.str)
  store i32 %35, ptr %5, align 4
  store i32 1, ptr %13, align 4
  br label %104

36:                                               ; preds = %27
  %37 = load ptr, ptr %7, align 8, !tbaa !8
  %38 = getelementptr inbounds nuw %struct.exr_attr_opaquedata_t, ptr %37, i32 0, i32 5
  %39 = load ptr, ptr %38, align 8, !tbaa !37
  %40 = icmp ne ptr %39, null
  br i1 %40, label %41, label %58

41:                                               ; preds = %36
  %42 = load ptr, ptr %8, align 8, !tbaa !40
  %43 = icmp ne ptr %42, null
  br i1 %43, label %44, label %49

44:                                               ; preds = %41
  %45 = load ptr, ptr %7, align 8, !tbaa !8
  %46 = getelementptr inbounds nuw %struct.exr_attr_opaquedata_t, ptr %45, i32 0, i32 1
  %47 = load i32, ptr %46, align 4, !tbaa !39
  %48 = load ptr, ptr %8, align 8, !tbaa !40
  store i32 %47, ptr %48, align 4, !tbaa !28
  br label %49

49:                                               ; preds = %44, %41
  %50 = load ptr, ptr %9, align 8, !tbaa !41
  %51 = icmp ne ptr %50, null
  br i1 %51, label %52, label %57

52:                                               ; preds = %49
  %53 = load ptr, ptr %7, align 8, !tbaa !8
  %54 = getelementptr inbounds nuw %struct.exr_attr_opaquedata_t, ptr %53, i32 0, i32 5
  %55 = load ptr, ptr %54, align 8, !tbaa !37
  %56 = load ptr, ptr %9, align 8, !tbaa !41
  store ptr %55, ptr %56, align 8, !tbaa !8
  br label %57

57:                                               ; preds = %52, %49
  store i32 0, ptr %5, align 4
  store i32 1, ptr %13, align 4
  br label %104

58:                                               ; preds = %36
  %59 = load ptr, ptr %7, align 8, !tbaa !8
  %60 = getelementptr inbounds nuw %struct.exr_attr_opaquedata_t, ptr %59, i32 0, i32 6
  %61 = load ptr, ptr %60, align 8, !tbaa !42
  %62 = icmp ne ptr %61, null
  br i1 %62, label %69, label %63

63:                                               ; preds = %58
  %64 = load ptr, ptr %6, align 8, !tbaa !3
  %65 = getelementptr inbounds nuw %struct._priv_exr_context_t, ptr %64, i32 0, i32 13
  %66 = load ptr, ptr %65, align 8, !tbaa !11
  %67 = load ptr, ptr %6, align 8, !tbaa !3
  %68 = call i32 %66(ptr noundef %67, i32 noundef 3, ptr noundef @.str.2)
  store i32 %68, ptr %5, align 4
  store i32 1, ptr %13, align 4
  br label %104

69:                                               ; preds = %58
  %70 = load ptr, ptr %7, align 8, !tbaa !8
  %71 = getelementptr inbounds nuw %struct.exr_attr_opaquedata_t, ptr %70, i32 0, i32 6
  %72 = load ptr, ptr %71, align 8, !tbaa !42
  %73 = load ptr, ptr %6, align 8, !tbaa !3
  %74 = load ptr, ptr %7, align 8, !tbaa !8
  %75 = getelementptr inbounds nuw %struct.exr_attr_opaquedata_t, ptr %74, i32 0, i32 4
  %76 = load ptr, ptr %75, align 8, !tbaa !31
  %77 = load ptr, ptr %7, align 8, !tbaa !8
  %78 = getelementptr inbounds nuw %struct.exr_attr_opaquedata_t, ptr %77, i32 0, i32 0
  %79 = load i32, ptr %78, align 8, !tbaa !34
  %80 = call i32 %72(ptr noundef %73, ptr noundef %76, i32 noundef %79, ptr noundef %11, ptr noundef %12)
  store i32 %80, ptr %10, align 4, !tbaa !28
  %81 = load i32, ptr %10, align 4, !tbaa !28
  %82 = icmp eq i32 %81, 0
  br i1 %82, label %83, label %102

83:                                               ; preds = %69
  %84 = load i32, ptr %11, align 4, !tbaa !28
  %85 = load ptr, ptr %7, align 8, !tbaa !8
  %86 = getelementptr inbounds nuw %struct.exr_attr_opaquedata_t, ptr %85, i32 0, i32 1
  store i32 %84, ptr %86, align 4, !tbaa !39
  %87 = load ptr, ptr %12, align 8, !tbaa !8
  %88 = load ptr, ptr %7, align 8, !tbaa !8
  %89 = getelementptr inbounds nuw %struct.exr_attr_opaquedata_t, ptr %88, i32 0, i32 5
  store ptr %87, ptr %89, align 8, !tbaa !37
  %90 = load ptr, ptr %8, align 8, !tbaa !40
  %91 = icmp ne ptr %90, null
  br i1 %91, label %92, label %95

92:                                               ; preds = %83
  %93 = load i32, ptr %11, align 4, !tbaa !28
  %94 = load ptr, ptr %8, align 8, !tbaa !40
  store i32 %93, ptr %94, align 4, !tbaa !28
  br label %95

95:                                               ; preds = %92, %83
  %96 = load ptr, ptr %9, align 8, !tbaa !41
  %97 = icmp ne ptr %96, null
  br i1 %97, label %98, label %101

98:                                               ; preds = %95
  %99 = load ptr, ptr %12, align 8, !tbaa !8
  %100 = load ptr, ptr %9, align 8, !tbaa !41
  store ptr %99, ptr %100, align 8, !tbaa !8
  br label %101

101:                                              ; preds = %98, %95
  br label %102

102:                                              ; preds = %101, %69
  %103 = load i32, ptr %10, align 4, !tbaa !28
  store i32 %103, ptr %5, align 4
  store i32 1, ptr %13, align 4
  br label %104

104:                                              ; preds = %102, %63, %57, %30, %16
  call void @llvm.lifetime.end.p0(i64 8, ptr %12) #4
  call void @llvm.lifetime.end.p0(i64 4, ptr %11) #4
  call void @llvm.lifetime.end.p0(i64 4, ptr %10) #4
  %105 = load i32, ptr %5, align 4
  ret i32 %105
}