; Function Attrs: nounwind uwtable
define hidden i32 @exr_attr_opaquedata_unpack(ptr noundef %0, ptr noundef %1, ptr noundef writeonly %2, ptr noundef writeonly %3) local_unnamed_addr #0 {
  %5 = alloca i32, align 4
  %6 = alloca ptr, align 8
  call void @llvm.lifetime.start.p0(i64 4, ptr nonnull %5) #4
  call void @llvm.lifetime.start.p0(i64 8, ptr nonnull %6) #4
  %.not = icmp eq ptr %0, null
  br i1 %.not, label %45, label %7

7:                                                ; preds = %4
  %.not37 = icmp eq ptr %2, null
  br i1 %.not37, label %9, label %8

8:                                                ; preds = %7
  store i32 0, ptr %2, align 4, !tbaa !33
  br label %9

9:                                                ; preds = %8, %7
  %.not38 = icmp eq ptr %3, null
  br i1 %.not38, label %11, label %10

10:                                               ; preds = %9
  store ptr null, ptr %3, align 8, !tbaa !34
  br label %11

11:                                               ; preds = %10, %9
  %.not39 = icmp eq ptr %1, null
  br i1 %.not39, label %12, label %16

12:                                               ; preds = %11
  %13 = getelementptr inbounds nuw i8, ptr %0, i64 64
  %14 = load ptr, ptr %13, align 8, !tbaa !3
  %15 = tail call i32 %14(ptr noundef nonnull %0, i32 noundef 3, ptr noundef nonnull @.str) #4
  br label %45

16:                                               ; preds = %11
  %17 = getelementptr inbounds nuw i8, ptr %1, i64 24
  %18 = load ptr, ptr %17, align 8, !tbaa !30
  %.not40 = icmp eq ptr %18, null
  br i1 %.not40, label %25, label %19

19:                                               ; preds = %16
  br i1 %.not37, label %23, label %20

20:                                               ; preds = %19
  %21 = getelementptr inbounds nuw i8, ptr %1, i64 4
  %22 = load i32, ptr %21, align 4, !tbaa !32
  store i32 %22, ptr %2, align 4, !tbaa !33
  br label %23

23:                                               ; preds = %20, %19
  br i1 %.not38, label %45, label %24

24:                                               ; preds = %23
  store ptr %18, ptr %3, align 8, !tbaa !34
  br label %45

25:                                               ; preds = %16
  %26 = getelementptr inbounds nuw i8, ptr %1, i64 32
  %27 = load ptr, ptr %26, align 8, !tbaa !35
  %.not41 = icmp eq ptr %27, null
  br i1 %.not41, label %28, label %32

28:                                               ; preds = %25
  %29 = getelementptr inbounds nuw i8, ptr %0, i64 64
  %30 = load ptr, ptr %29, align 8, !tbaa !3
  %31 = tail call i32 %30(ptr noundef nonnull %0, i32 noundef 3, ptr noundef nonnull @.str.2) #4
  br label %45

32:                                               ; preds = %25
  %33 = getelementptr inbounds nuw i8, ptr %1, i64 16
  %34 = load ptr, ptr %33, align 8, !tbaa !24
  %35 = load i32, ptr %1, align 8, !tbaa !27
  %36 = call i32 %27(ptr noundef nonnull %0, ptr noundef %34, i32 noundef %35, ptr noundef nonnull %5, ptr noundef nonnull %6) #4
  %37 = icmp eq i32 %36, 0
  br i1 %37, label %38, label %45

38:                                               ; preds = %32
  %39 = load i32, ptr %5, align 4, !tbaa !33
  %40 = getelementptr inbounds nuw i8, ptr %1, i64 4
  store i32 %39, ptr %40, align 4, !tbaa !32
  %41 = load ptr, ptr %6, align 8, !tbaa !34
  store ptr %41, ptr %17, align 8, !tbaa !30
  br i1 %.not37, label %43, label %42

42:                                               ; preds = %38
  store i32 %39, ptr %2, align 4, !tbaa !33
  br label %43

43:                                               ; preds = %42, %38
  br i1 %.not38, label %45, label %44

44:                                               ; preds = %43
  store ptr %41, ptr %3, align 8, !tbaa !34
  br label %45

45:                                               ; preds = %32, %44, %43, %23, %24, %4, %28, %12
  %.0 = phi i32 [ %31, %28 ], [ %15, %12 ], [ 2, %4 ], [ 0, %24 ], [ 0, %23 ], [ 0, %43 ], [ 0, %44 ], [ %36, %32 ]
  call void @llvm.lifetime.end.p0(i64 8, ptr nonnull %6) #4
  call void @llvm.lifetime.end.p0(i64 4, ptr nonnull %5) #4
  ret i32 %.0
}